; Function Attrs: mustprogress uwtable
define dso_local void @_ZNK22btBvhTriangleMeshShape30serializeSingleTriangleInfoMapEP12btSerializer(ptr nocapture noundef nonnull readonly align 8 dereferenceable(109) %this, ptr noundef %serializer) unnamed_addr #0 align 2 {
entry:
  %m_triangleInfoMap = getelementptr inbounds i8, ptr %this, i64 88
  %0 = load ptr, ptr %m_triangleInfoMap, align 8
  %tobool.not = icmp eq ptr %0, null
  br i1 %tobool.not, label %if.end, label %if.then

if.then:                                          ; preds = %entry
  %vtable = load ptr, ptr %0, align 8
  %vfn = getelementptr inbounds i8, ptr %vtable, i64 16
  %1 = load ptr, ptr %vfn, align 8
  %call = tail call noundef i32 %1(ptr noundef nonnull align 8 dereferenceable(160) %0)
  %conv = sext i32 %call to i64
  %vtable3 = load ptr, ptr %serializer, align 8
  %vfn4 = getelementptr inbounds i8, ptr %vtable3, i64 32
  %2 = load ptr, ptr %vfn4, align 8
  %call5 = tail call noundef ptr %2(ptr noundef nonnull align 8 dereferenceable(8) %serializer, i64 noundef %conv, i32 noundef 1)
  %3 = load ptr, ptr %m_triangleInfoMap, align 8
  %m_oldPtr = getelementptr inbounds i8, ptr %call5, i64 8
  %4 = load ptr, ptr %m_oldPtr, align 8
  %vtable7 = load ptr, ptr %3, align 8
  %vfn8 = getelementptr inbounds i8, ptr %vtable7, i64 24
  %5 = load ptr, ptr %vfn8, align 8
  %call9 = tail call noundef ptr %5(ptr noundef nonnull align 8 dereferenceable(160) %3, ptr noundef %4, ptr noundef nonnull %serializer)
  %6 = load ptr, ptr %m_triangleInfoMap, align 8
  %vtable11 = load ptr, ptr %serializer, align 8
  %vfn12 = getelementptr inbounds i8, ptr %vtable11, i64 40
  %7 = load ptr, ptr %vfn12, align 8
  tail call void %7(ptr noundef nonnull align 8 dereferenceable(8) %serializer, ptr noundef %call5, ptr noundef %call9, i32 noundef 1346456916, ptr noundef %6)
  br label %if.end

if.end:                                           ; preds = %if.then, %entry
  ret void
}